target datalayout = "e-m:e-p270:32:32-p271:32:32-p272:64:64-i64:64-i128:128-f80:128-n8:16:32:64-S128"
target triple = "x86_64-pc-linux-gnu"

@hf_aas_beam_beam_bit_mask = internal global i32 0, align 4
@hf_aas_beam_cinr_value = internal global i32 0, align 4
@hf_aas_beam_feedback_request_number = internal global i32 0, align 4
@hf_aas_beam_frame_number = internal global i32 0, align 4
@hf_aas_beam_freq_value_im = internal global i32 0, align 4
@hf_aas_beam_freq_value_re = internal global i32 0, align 4
@hf_aas_beam_measurement_report_type = internal global i32 0, align 4
@hf_aas_beam_select_reserved = internal global i32 0, align 4
@hf_aas_beam_resolution_parameter = internal global i32 0, align 4
@hf_aas_beam_rssi_value = internal global i32 0, align 4
@ett_mac_mgmt_msg_aas_beam_rsp_decoder = internal global i32 0, align 4
@proto_mac_mgmt_msg_aas_beam_decoder = internal global i32 0, align 4
@.str.39 = private unnamed_addr constant [33 x i8] c"AAS Beam Response (AAS-BEAM-RSP)\00", align 1

; Function Attrs: null_pointer_is_valid sspstrong uwtable
define internal i32 @dissect_mac_mgmt_msg_aas_beam_rsp_decoder(ptr noundef %0, ptr noundef %1, ptr noundef %2, ptr noundef %3) #0 {
  %5 = alloca ptr, align 8
  %6 = alloca ptr, align 8
  %7 = alloca ptr, align 8
  %8 = alloca ptr, align 8
  %9 = alloca i32, align 4
  %10 = alloca i32, align 4
  %11 = alloca i32, align 4
  %12 = alloca i32, align 4
  %13 = alloca i32, align 4
  %14 = alloca ptr, align 8
  %15 = alloca ptr, align 8
  store ptr %0, ptr %5, align 8
  store ptr %1, ptr %6, align 8
  store ptr %2, ptr %7, align 8
  store ptr %3, ptr %8, align 8
  call void @llvm.lifetime.start.p0(i64 4, ptr %9) #3
  store i32 0, ptr %9, align 4
  call void @llvm.lifetime.start.p0(i64 4, ptr %10) #3
  call void @llvm.lifetime.start.p0(i64 4, ptr %11) #3
  call void @llvm.lifetime.start.p0(i64 4, ptr %12) #3
  call void @llvm.lifetime.start.p0(i64 4, ptr %13) #3
  call void @llvm.lifetime.start.p0(i64 8, ptr %14) #3
  call void @llvm.lifetime.start.p0(i64 8, ptr %15) #3
  %16 = load ptr, ptr %5, align 8
  %17 = call i32 @tvb_reported_length(ptr noundef %16)
  store i32 %17, ptr %10, align 4
  %18 = load ptr, ptr %7, align 8
  %19 = load i32, ptr @proto_mac_mgmt_msg_aas_beam_decoder, align 4
  %20 = load ptr, ptr %5, align 8
  %21 = load i32, ptr %9, align 4
  %22 = call ptr (ptr, i32, ptr, i32, i32, ptr, ...) @proto_tree_add_protocol_format(ptr noundef %18, i32 noundef %19, ptr noundef %20, i32 noundef %21, i32 noundef -1, ptr noundef @.str.39)
  store ptr %22, ptr %14, align 8
  %23 = load ptr, ptr %14, align 8
  %24 = load i32, ptr @ett_mac_mgmt_msg_aas_beam_rsp_decoder, align 4
  %25 = call ptr @proto_item_add_subtree(ptr noundef %23, i32 noundef %24)
  store ptr %25, ptr %15, align 8
  %26 = load ptr, ptr %15, align 8
  %27 = load i32, ptr @hf_aas_beam_frame_number, align 4
  %28 = load ptr, ptr %5, align 8
  %29 = load i32, ptr %9, align 4
  %30 = call ptr @proto_tree_add_item(ptr noundef %26, i32 noundef %27, ptr noundef %28, i32 noundef %29, i32 noundef 1, i32 noundef 0)
  %31 = load i32, ptr %9, align 4
  %32 = add i32 %31, 1
  store i32 %32, ptr %9, align 4
  %33 = load ptr, ptr %5, align 8
  %34 = load i32, ptr %9, align 4
  %35 = call zeroext i8 @tvb_get_uint8(ptr noundef %33, i32 noundef %34)
  %36 = zext i8 %35 to i32
  store i32 %36, ptr %11, align 4
  %37 = load ptr, ptr %15, align 8
  %38 = load i32, ptr @hf_aas_beam_feedback_request_number, align 4
  %39 = load ptr, ptr %5, align 8
  %40 = load i32, ptr %9, align 4
  %41 = call ptr @proto_tree_add_item(ptr noundef %37, i32 noundef %38, ptr noundef %39, i32 noundef %40, i32 noundef 1, i32 noundef 0)
  %42 = load ptr, ptr %15, align 8
  %43 = load i32, ptr @hf_aas_beam_measurement_report_type, align 4
  %44 = load ptr, ptr %5, align 8
  %45 = load i32, ptr %9, align 4
  %46 = call ptr @proto_tree_add_item(ptr noundef %42, i32 noundef %43, ptr noundef %44, i32 noundef %45, i32 noundef 1, i32 noundef 0)
  %47 = load ptr, ptr %15, align 8
  %48 = load i32, ptr @hf_aas_beam_resolution_parameter, align 4
  %49 = load ptr, ptr %5, align 8
  %50 = load i32, ptr %9, align 4
  %51 = call ptr @proto_tree_add_item(ptr noundef %47, i32 noundef %48, ptr noundef %49, i32 noundef %50, i32 noundef 1, i32 noundef 0)
  %52 = load i32, ptr %9, align 4
  %53 = add i32 %52, 1
  store i32 %53, ptr %9, align 4
  %54 = load ptr, ptr %15, align 8
  %55 = load i32, ptr @hf_aas_beam_beam_bit_mask, align 4
  %56 = load ptr, ptr %5, align 8
  %57 = load i32, ptr %9, align 4
  %58 = call ptr @proto_tree_add_item(ptr noundef %54, i32 noundef %55, ptr noundef %56, i32 noundef %57, i32 noundef 1, i32 noundef 0)
  %59 = load ptr, ptr %15, align 8
  %60 = load i32, ptr @hf_aas_beam_select_reserved, align 4
  %61 = load ptr, ptr %5, align 8
  %62 = load i32, ptr %9, align 4
  %63 = call ptr @proto_tree_add_item(ptr noundef %59, i32 noundef %60, ptr noundef %61, i32 noundef %62, i32 noundef 1, i32 noundef 0)
  %64 = load i32, ptr %9, align 4
  %65 = add i32 %64, 1
  store i32 %65, ptr %9, align 4
  %66 = load i32, ptr %11, align 4
  %67 = and i32 %66, 24
  %68 = icmp eq i32 %67, 0
  br i1 %68, label %69, label %98

69:                                               ; preds = %4
  %70 = load i32, ptr %10, align 4
  %71 = load i32, ptr %9, align 4
  %72 = sub i32 %70, %71
  %73 = udiv i32 %72, 2
  %74 = sub i32 %73, 1
  store i32 %74, ptr %12, align 4
  store i32 0, ptr %13, align 4
  br label %75

75:                                               ; preds = %94, %69
  %76 = load i32, ptr %13, align 4
  %77 = load i32, ptr %12, align 4
  %78 = icmp ult i32 %76, %77
  br i1 %78, label %79, label %97

79:                                               ; preds = %75
  %80 = load ptr, ptr %15, align 8
  %81 = load i32, ptr @hf_aas_beam_freq_value_re, align 4
  %82 = load ptr, ptr %5, align 8
  %83 = load i32, ptr %9, align 4
  %84 = call ptr @proto_tree_add_item(ptr noundef %80, i32 noundef %81, ptr noundef %82, i32 noundef %83, i32 noundef 1, i32 noundef 0)
  %85 = load i32, ptr %9, align 4
  %86 = add i32 %85, 1
  store i32 %86, ptr %9, align 4
  %87 = load ptr, ptr %15, align 8
  %88 = load i32, ptr @hf_aas_beam_freq_value_im, align 4
  %89 = load ptr, ptr %5, align 8
  %90 = load i32, ptr %9, align 4
  %91 = call ptr @proto_tree_add_item(ptr noundef %87, i32 noundef %88, ptr noundef %89, i32 noundef %90, i32 noundef 1, i32 noundef 0)
  %92 = load i32, ptr %9, align 4
  %93 = add i32 %92, 1
  store i32 %93, ptr %9, align 4
  br label %94

94:                                               ; preds = %79
  %95 = load i32, ptr %13, align 4
  %96 = add i32 %95, 1
  store i32 %96, ptr %13, align 4
  br label %75, !llvm.loop !6

97:                                               ; preds = %75
  br label %98

98:                                               ; preds = %97, %4
  %99 = load ptr, ptr %15, align 8
  %100 = load i32, ptr @hf_aas_beam_rssi_value, align 4
  %101 = load ptr, ptr %5, align 8
  %102 = load i32, ptr %9, align 4
  %103 = call ptr @proto_tree_add_item(ptr noundef %99, i32 noundef %100, ptr noundef %101, i32 noundef %102, i32 noundef 1, i32 noundef 0)
  %104 = load i32, ptr %9, align 4
  %105 = add i32 %104, 1
  store i32 %105, ptr %9, align 4
  %106 = load ptr, ptr %15, align 8
  %107 = load i32, ptr @hf_aas_beam_cinr_value, align 4
  %108 = load ptr, ptr %5, align 8
  %109 = load i32, ptr %9, align 4
  %110 = call ptr @proto_tree_add_item(ptr noundef %106, i32 noundef %107, ptr noundef %108, i32 noundef %109, i32 noundef 1, i32 noundef 0)
  %111 = load ptr, ptr %5, align 8
  %112 = call i32 @tvb_captured_length(ptr noundef %111)
  call void @llvm.lifetime.end.p0(i64 8, ptr %15) #3
  call void @llvm.lifetime.end.p0(i64 8, ptr %14) #3
  call void @llvm.lifetime.end.p0(i64 4, ptr %13) #3
  call void @llvm.lifetime.end.p0(i64 4, ptr %12) #3
  call void @llvm.lifetime.end.p0(i64 4, ptr %11) #3
  call void @llvm.lifetime.end.p0(i64 4, ptr %10) #3
  call void @llvm.lifetime.end.p0(i64 4, ptr %9) #3
  ret i32 %112
}