; Function Attrs: null_pointer_is_valid sspstrong uwtable
define internal i32 @dissect_mac_mgmt_msg_aas_beam_rsp_decoder(ptr noundef %0, ptr readnone captures(none) %1, ptr noundef %2, ptr readnone captures(none) %3) #0 {
  %5 = tail call i32 @tvb_reported_length(ptr noundef %0)
  %6 = load i32, ptr @proto_mac_mgmt_msg_aas_beam_decoder, align 4
  %7 = tail call ptr (ptr, i32, ptr, i32, i32, ptr, ...) @proto_tree_add_protocol_format(ptr noundef %2, i32 noundef %6, ptr noundef %0, i32 noundef 0, i32 noundef -1, ptr noundef nonnull @.str.39)
  %8 = load i32, ptr @ett_mac_mgmt_msg_aas_beam_rsp_decoder, align 4
  %9 = tail call ptr @proto_item_add_subtree(ptr noundef %7, i32 noundef %8)
  %10 = load i32, ptr @hf_aas_beam_frame_number, align 4
  %11 = tail call ptr @proto_tree_add_item(ptr noundef %9, i32 noundef %10, ptr noundef %0, i32 noundef 0, i32 noundef 1, i32 noundef 0)
  %12 = tail call zeroext i8 @tvb_get_uint8(ptr noundef %0, i32 noundef 1)
  %13 = load i32, ptr @hf_aas_beam_feedback_request_number, align 4
  %14 = tail call ptr @proto_tree_add_item(ptr noundef %9, i32 noundef %13, ptr noundef %0, i32 noundef 1, i32 noundef 1, i32 noundef 0)
  %15 = load i32, ptr @hf_aas_beam_measurement_report_type, align 4
  %16 = tail call ptr @proto_tree_add_item(ptr noundef %9, i32 noundef %15, ptr noundef %0, i32 noundef 1, i32 noundef 1, i32 noundef 0)
  %17 = load i32, ptr @hf_aas_beam_resolution_parameter, align 4
  %18 = tail call ptr @proto_tree_add_item(ptr noundef %9, i32 noundef %17, ptr noundef %0, i32 noundef 1, i32 noundef 1, i32 noundef 0)
  %19 = load i32, ptr @hf_aas_beam_beam_bit_mask, align 4
  %20 = tail call ptr @proto_tree_add_item(ptr noundef %9, i32 noundef %19, ptr noundef %0, i32 noundef 2, i32 noundef 1, i32 noundef 0)
  %21 = load i32, ptr @hf_aas_beam_select_reserved, align 4
  %22 = tail call ptr @proto_tree_add_item(ptr noundef %9, i32 noundef %21, ptr noundef %0, i32 noundef 2, i32 noundef 1, i32 noundef 0)
  %23 = and i8 %12, 24
  %24 = icmp eq i8 %23, 0
  br i1 %24, label %25, label %.loopexit

25:                                               ; preds = %4
  %26 = add i32 %5, -3
  %27 = lshr i32 %26, 1
  %28 = add nsw i32 %27, -1
  %.not = icmp eq i32 %28, 0
  br i1 %.not, label %.loopexit, label %.lr.ph

.lr.ph:                                           ; preds = %25, %.lr.ph
  %.151 = phi i32 [ %34, %.lr.ph ], [ 3, %25 ]
  %.04950 = phi i32 [ %35, %.lr.ph ], [ 0, %25 ]
  %29 = load i32, ptr @hf_aas_beam_freq_value_re, align 4
  %30 = tail call ptr @proto_tree_add_item(ptr noundef %9, i32 noundef %29, ptr noundef %0, i32 noundef %.151, i32 noundef 1, i32 noundef 0)
  %31 = add i32 %.151, 1
  %32 = load i32, ptr @hf_aas_beam_freq_value_im, align 4
  %33 = tail call ptr @proto_tree_add_item(ptr noundef %9, i32 noundef %32, ptr noundef %0, i32 noundef %31, i32 noundef 1, i32 noundef 0)
  %34 = add i32 %.151, 2
  %35 = add nuw i32 %.04950, 1
  %exitcond.not = icmp eq i32 %35, %28
  br i1 %exitcond.not, label %.loopexit, label %.lr.ph, !llvm.loop !6

.loopexit:                                        ; preds = %.lr.ph, %25, %4
  %.0 = phi i32 [ 3, %4 ], [ 3, %25 ], [ %34, %.lr.ph ]
  %36 = load i32, ptr @hf_aas_beam_rssi_value, align 4
  %37 = tail call ptr @proto_tree_add_item(ptr noundef %9, i32 noundef %36, ptr noundef %0, i32 noundef %.0, i32 noundef 1, i32 noundef 0)
  %38 = add i32 %.0, 1
  %39 = load i32, ptr @hf_aas_beam_cinr_value, align 4
  %40 = tail call ptr @proto_tree_add_item(ptr noundef %9, i32 noundef %39, ptr noundef %0, i32 noundef %38, i32 noundef 1, i32 noundef 0)
  %41 = tail call i32 @tvb_captured_length(ptr noundef %0)
  ret i32 %41
}